target datalayout = "e-m:e-p270:32:32-p271:32:32-p272:64:64-i64:64-i128:128-f80:128-n8:16:32:64-S128"
target triple = "x86_64-pc-linux-gnu"

; Function Attrs: nounwind uwtable
define internal i32 @os_remove(ptr noundef %0) #0 {
  %2 = alloca ptr, align 8
  %3 = alloca ptr, align 8
  store ptr %0, ptr %2, align 8, !tbaa !4
  call void @llvm.lifetime.start.p0(i64 8, ptr %3) #9
  %4 = load ptr, ptr %2, align 8, !tbaa !4
  %5 = call ptr @luaL_checklstring(ptr noundef %4, i32 noundef 1, ptr noundef null)
  store ptr %5, ptr %3, align 8, !tbaa !9
  %6 = call ptr @__errno_location() #11
  store i32 0, ptr %6, align 4, !tbaa !20
  %7 = load ptr, ptr %2, align 8, !tbaa !4
  %8 = load ptr, ptr %3, align 8, !tbaa !9
  %9 = call i32 @remove(ptr noundef %8) #9
  %10 = icmp eq i32 %9, 0
  %11 = zext i1 %10 to i32
  %12 = load ptr, ptr %3, align 8, !tbaa !9
  %13 = call i32 @luaL_fileresult(ptr noundef %7, i32 noundef %11, ptr noundef %12)
  call void @llvm.lifetime.end.p0(i64 8, ptr %3) #9
  ret i32 %13
}