; Function Attrs: nounwind uwtable
define internal i32 @os_remove(ptr noundef %0) #0 {
  %2 = tail call ptr @luaL_checklstring(ptr noundef %0, i32 noundef 1, ptr noundef null) #12
  %3 = tail call ptr @__errno_location() #13
  store i32 0, ptr %3, align 4, !tbaa !16
  %4 = tail call i32 @remove(ptr noundef %2) #12
  %5 = icmp eq i32 %4, 0
  %6 = zext i1 %5 to i32
  %7 = tail call i32 @luaL_fileresult(ptr noundef %0, i32 noundef %6, ptr noundef %2) #12
  ret i32 %7
}